target datalayout = "e-m:e-p270:32:32-p271:32:32-p272:64:64-i64:64-i128:128-f80:128-n8:16:32:64-S128"
target triple = "x86_64-pc-linux-gnu"

; Function Attrs: nounwind uwtable
define dso_local void @makeSquareGrid(i32 noundef %0, i32 noundef %1, i32 noundef %2, i32 noundef %3, ptr noundef %4) #0 {
  %6 = alloca i32, align 4
  %7 = alloca i32, align 4
  %8 = alloca i32, align 4
  %9 = alloca i32, align 4
  %10 = alloca ptr, align 8
  %11 = alloca i32, align 4
  %12 = alloca i32, align 4
  %13 = alloca i32, align 4
  %14 = alloca i32, align 4
  %15 = alloca i32, align 4
  store i32 %0, ptr %6, align 4, !tbaa !4
  store i32 %1, ptr %7, align 4, !tbaa !4
  store i32 %2, ptr %8, align 4, !tbaa !4
  store i32 %3, ptr %9, align 4, !tbaa !4
  store ptr %4, ptr %10, align 8, !tbaa !8
  call void @llvm.lifetime.start.p0(i64 4, ptr %11) #11
  store i32 0, ptr %11, align 4, !tbaa !4
  br label %16

16:                                               ; preds = %261, %5
  %17 = load i32, ptr %11, align 4, !tbaa !4
  %18 = load i32, ptr %6, align 4, !tbaa !4
  %19 = icmp ult i32 %17, %18
  br i1 %19, label %21, label %20

20:                                               ; preds = %16
  store i32 2, ptr %12, align 4
  call void @llvm.lifetime.end.p0(i64 4, ptr %11) #11
  br label %264

21:                                               ; preds = %16
  call void @llvm.lifetime.start.p0(i64 4, ptr %13) #11
  store i32 0, ptr %13, align 4, !tbaa !4
  br label %22

22:                                               ; preds = %257, %21
  %23 = load i32, ptr %13, align 4, !tbaa !4
  %24 = load i32, ptr %7, align 4, !tbaa !4
  %25 = icmp ult i32 %23, %24
  br i1 %25, label %27, label %26

26:                                               ; preds = %22
  store i32 5, ptr %12, align 4
  call void @llvm.lifetime.end.p0(i64 4, ptr %13) #11
  br label %260

27:                                               ; preds = %22
  call void @llvm.lifetime.start.p0(i64 4, ptr %14) #11
  %28 = load i32, ptr %11, align 4, !tbaa !4
  %29 = load i32, ptr %7, align 4, !tbaa !4
  %30 = mul i32 %28, %29
  %31 = load i32, ptr %13, align 4, !tbaa !4
  %32 = add i32 %30, %31
  %33 = add i32 %32, 1
  store i32 %33, ptr %14, align 4, !tbaa !4
  call void @llvm.lifetime.start.p0(i64 4, ptr %15) #11
  %34 = load i32, ptr %13, align 4, !tbaa !4
  %35 = add i32 %34, 1
  %36 = load i32, ptr %7, align 4, !tbaa !4
  %37 = icmp ult i32 %35, %36
  br i1 %37, label %38, label %74

38:                                               ; preds = %27
  %39 = load i32, ptr %9, align 4, !tbaa !4
  %40 = icmp ne i32 %39, 0
  br i1 %40, label %41, label %65

41:                                               ; preds = %38
  %42 = load i32, ptr %13, align 4, !tbaa !4
  %43 = load i32, ptr %7, align 4, !tbaa !4
  %44 = mul i32 2, %43
  %45 = udiv i32 %44, 6
  %46 = icmp ult i32 %42, %45
  br i1 %46, label %65, label %47

47:                                               ; preds = %41
  %48 = load i32, ptr %13, align 4, !tbaa !4
  %49 = load i32, ptr %7, align 4, !tbaa !4
  %50 = mul i32 4, %49
  %51 = udiv i32 %50, 6
  %52 = icmp uge i32 %48, %51
  br i1 %52, label %65, label %53

53:                                               ; preds = %47
  %54 = load i32, ptr %11, align 4, !tbaa !4
  %55 = load i32, ptr %6, align 4, !tbaa !4
  %56 = mul i32 2, %55
  %57 = udiv i32 %56, 6
  %58 = icmp ule i32 %54, %57
  br i1 %58, label %65, label %59

59:                                               ; preds = %53
  %60 = load i32, ptr %11, align 4, !tbaa !4
  %61 = load i32, ptr %6, align 4, !tbaa !4
  %62 = mul i32 4, %61
  %63 = udiv i32 %62, 6
  %64 = icmp ugt i32 %60, %63
  br i1 %64, label %65, label %74

65:                                               ; preds = %59, %53, %47, %41, %38
  %66 = load ptr, ptr %10, align 8, !tbaa !8
  %67 = load i32, ptr %14, align 4, !tbaa !4
  %68 = load i32, ptr %11, align 4, !tbaa !4
  %69 = load i32, ptr %7, align 4, !tbaa !4
  %70 = mul i32 %68, %69
  %71 = load i32, ptr %13, align 4, !tbaa !4
  %72 = add i32 %70, %71
  %73 = add i32 %72, 2
  call void %66(i32 noundef %67, i32 noundef %73)
  br label %74

74:                                               ; preds = %65, %59, %27
  %75 = load i32, ptr %11, align 4, !tbaa !4
  %76 = add i32 %75, 1
  %77 = load i32, ptr %6, align 4, !tbaa !4
  %78 = icmp ult i32 %76, %77
  br i1 %78, label %79, label %89

79:                                               ; preds = %74
  %80 = load ptr, ptr %10, align 8, !tbaa !8
  %81 = load i32, ptr %14, align 4, !tbaa !4
  %82 = load i32, ptr %11, align 4, !tbaa !4
  %83 = add i32 %82, 1
  %84 = load i32, ptr %7, align 4, !tbaa !4
  %85 = mul i32 %83, %84
  %86 = load i32, ptr %13, align 4, !tbaa !4
  %87 = add i32 %85, %86
  %88 = add i32 %87, 1
  call void %80(i32 noundef %81, i32 noundef %88)
  br label %89

89:                                               ; preds = %79, %74
  %90 = load i32, ptr %8, align 4, !tbaa !4
  %91 = icmp eq i32 %90, 1
  br i1 %91, label %92, label %172

92:                                               ; preds = %89
  %93 = load i32, ptr %11, align 4, !tbaa !4
  %94 = icmp eq i32 %93, 0
  br i1 %94, label %95, label %112

95:                                               ; preds = %92
  %96 = load i32, ptr %13, align 4, !tbaa !4
  %97 = icmp eq i32 %96, 0
  br i1 %97, label %98, label %112

98:                                               ; preds = %95
  %99 = load i32, ptr %14, align 4, !tbaa !4
  %100 = load i32, ptr %6, align 4, !tbaa !4
  %101 = sub i32 %100, 1
  %102 = load i32, ptr %7, align 4, !tbaa !4
  %103 = mul i32 %101, %102
  %104 = load i32, ptr %7, align 4, !tbaa !4
  %105 = add i32 %103, %104
  store i32 %105, ptr %15, align 4, !tbaa !4
  %106 = icmp ult i32 %99, %105
  br i1 %106, label %107, label %111

107:                                              ; preds = %98
  %108 = load ptr, ptr %10, align 8, !tbaa !8
  %109 = load i32, ptr %14, align 4, !tbaa !4
  %110 = load i32, ptr %15, align 4, !tbaa !4
  call void %108(i32 noundef %109, i32 noundef %110)
  br label %111

111:                                              ; preds = %107, %98
  br label %171

112:                                              ; preds = %95, %92
  %113 = load i32, ptr %11, align 4, !tbaa !4
  %114 = add i32 %113, 1
  %115 = load i32, ptr %6, align 4, !tbaa !4
  %116 = icmp eq i32 %114, %115
  br i1 %116, label %117, label %129

117:                                              ; preds = %112
  %118 = load i32, ptr %13, align 4, !tbaa !4
  %119 = icmp eq i32 %118, 0
  br i1 %119, label %120, label %129

120:                                              ; preds = %117
  %121 = load i32, ptr %14, align 4, !tbaa !4
  %122 = load i32, ptr %7, align 4, !tbaa !4
  store i32 %122, ptr %15, align 4, !tbaa !4
  %123 = icmp ult i32 %121, %122
  br i1 %123, label %124, label %128

124:                                              ; preds = %120
  %125 = load ptr, ptr %10, align 8, !tbaa !8
  %126 = load i32, ptr %14, align 4, !tbaa !4
  %127 = load i32, ptr %15, align 4, !tbaa !4
  call void %125(i32 noundef %126, i32 noundef %127)
  br label %128

128:                                              ; preds = %124, %120
  br label %170

129:                                              ; preds = %117, %112
  %130 = load i32, ptr %11, align 4, !tbaa !4
  %131 = icmp eq i32 %130, 0
  br i1 %131, label %132, label %150

132:                                              ; preds = %129
  %133 = load i32, ptr %13, align 4, !tbaa !4
  %134 = add i32 %133, 1
  %135 = load i32, ptr %7, align 4, !tbaa !4
  %136 = icmp eq i32 %134, %135
  br i1 %136, label %137, label %150

137:                                              ; preds = %132
  %138 = load i32, ptr %14, align 4, !tbaa !4
  %139 = load i32, ptr %6, align 4, !tbaa !4
  %140 = sub i32 %139, 1
  %141 = load i32, ptr %7, align 4, !tbaa !4
  %142 = mul i32 %140, %141
  %143 = add i32 %142, 1
  store i32 %143, ptr %15, align 4, !tbaa !4
  %144 = icmp ult i32 %138, %143
  br i1 %144, label %145, label %149

145:                                              ; preds = %137
  %146 = load ptr, ptr %10, align 8, !tbaa !8
  %147 = load i32, ptr %14, align 4, !tbaa !4
  %148 = load i32, ptr %15, align 4, !tbaa !4
  call void %146(i32 noundef %147, i32 noundef %148)
  br label %149

149:                                              ; preds = %145, %137
  br label %169

150:                                              ; preds = %132, %129
  %151 = load i32, ptr %11, align 4, !tbaa !4
  %152 = add i32 %151, 1
  %153 = load i32, ptr %6, align 4, !tbaa !4
  %154 = icmp eq i32 %152, %153
  br i1 %154, label %155, label %168

155:                                              ; preds = %150
  %156 = load i32, ptr %13, align 4, !tbaa !4
  %157 = add i32 %156, 1
  %158 = load i32, ptr %7, align 4, !tbaa !4
  %159 = icmp eq i32 %157, %158
  br i1 %159, label %160, label %168

160:                                              ; preds = %155
  %161 = load i32, ptr %14, align 4, !tbaa !4
  store i32 1, ptr %15, align 4, !tbaa !4
  %162 = icmp ult i32 %161, 1
  br i1 %162, label %163, label %167

163:                                              ; preds = %160
  %164 = load ptr, ptr %10, align 8, !tbaa !8
  %165 = load i32, ptr %14, align 4, !tbaa !4
  %166 = load i32, ptr %15, align 4, !tbaa !4
  call void %164(i32 noundef %165, i32 noundef %166)
  br label %167

167:                                              ; preds = %163, %160
  br label %168

168:                                              ; preds = %167, %155, %150
  br label %169

169:                                              ; preds = %168, %149
  br label %170

170:                                              ; preds = %169, %128
  br label %171

171:                                              ; preds = %170, %111
  br label %256

172:                                              ; preds = %89
  %173 = load i32, ptr %8, align 4, !tbaa !4
  %174 = icmp eq i32 %173, 2
  br i1 %174, label %175, label %255

175:                                              ; preds = %172
  %176 = load i32, ptr %11, align 4, !tbaa !4
  %177 = icmp eq i32 %176, 0
  br i1 %177, label %178, label %190

178:                                              ; preds = %175
  %179 = load i32, ptr %13, align 4, !tbaa !4
  %180 = icmp eq i32 %179, 0
  br i1 %180, label %181, label %190

181:                                              ; preds = %178
  %182 = load i32, ptr %14, align 4, !tbaa !4
  %183 = load i32, ptr %7, align 4, !tbaa !4
  store i32 %183, ptr %15, align 4, !tbaa !4
  %184 = icmp ult i32 %182, %183
  br i1 %184, label %185, label %189

185:                                              ; preds = %181
  %186 = load ptr, ptr %10, align 8, !tbaa !8
  %187 = load i32, ptr %14, align 4, !tbaa !4
  %188 = load i32, ptr %15, align 4, !tbaa !4
  call void %186(i32 noundef %187, i32 noundef %188)
  br label %189

189:                                              ; preds = %185, %181
  br label %254

190:                                              ; preds = %178, %175
  %191 = load i32, ptr %11, align 4, !tbaa !4
  %192 = add i32 %191, 1
  %193 = load i32, ptr %6, align 4, !tbaa !4
  %194 = icmp eq i32 %192, %193
  br i1 %194, label %195, label %212

195:                                              ; preds = %190
  %196 = load i32, ptr %13, align 4, !tbaa !4
  %197 = icmp eq i32 %196, 0
  br i1 %197, label %198, label %212

198:                                              ; preds = %195
  %199 = load i32, ptr %14, align 4, !tbaa !4
  %200 = load i32, ptr %6, align 4, !tbaa !4
  %201 = sub i32 %200, 1
  %202 = load i32, ptr %7, align 4, !tbaa !4
  %203 = mul i32 %201, %202
  %204 = load i32, ptr %7, align 4, !tbaa !4
  %205 = add i32 %203, %204
  store i32 %205, ptr %15, align 4, !tbaa !4
  %206 = icmp ult i32 %199, %205
  br i1 %206, label %207, label %211

207:                                              ; preds = %198
  %208 = load ptr, ptr %10, align 8, !tbaa !8
  %209 = load i32, ptr %14, align 4, !tbaa !4
  %210 = load i32, ptr %15, align 4, !tbaa !4
  call void %208(i32 noundef %209, i32 noundef %210)
  br label %211

211:                                              ; preds = %207, %198
  br label %253

212:                                              ; preds = %195, %190
  %213 = load i32, ptr %11, align 4, !tbaa !4
  %214 = icmp eq i32 %213, 0
  br i1 %214, label %215, label %228

215:                                              ; preds = %212
  %216 = load i32, ptr %13, align 4, !tbaa !4
  %217 = add i32 %216, 1
  %218 = load i32, ptr %7, align 4, !tbaa !4
  %219 = icmp eq i32 %217, %218
  br i1 %219, label %220, label %228

220:                                              ; preds = %215
  %221 = load i32, ptr %14, align 4, !tbaa !4
  store i32 1, ptr %15, align 4, !tbaa !4
  %222 = icmp ult i32 %221, 1
  br i1 %222, label %223, label %227

223:                                              ; preds = %220
  %224 = load ptr, ptr %10, align 8, !tbaa !8
  %225 = load i32, ptr %14, align 4, !tbaa !4
  %226 = load i32, ptr %15, align 4, !tbaa !4
  call void %224(i32 noundef %225, i32 noundef %226)
  br label %227

227:                                              ; preds = %223, %220
  br label %252

228:                                              ; preds = %215, %212
  %229 = load i32, ptr %11, align 4, !tbaa !4
  %230 = add i32 %229, 1
  %231 = load i32, ptr %6, align 4, !tbaa !4
  %232 = icmp eq i32 %230, %231
  br i1 %232, label %233, label %251

233:                                              ; preds = %228
  %234 = load i32, ptr %13, align 4, !tbaa !4
  %235 = add i32 %234, 1
  %236 = load i32, ptr %7, align 4, !tbaa !4
  %237 = icmp eq i32 %235, %236
  br i1 %237, label %238, label %251

238:                                              ; preds = %233
  %239 = load i32, ptr %14, align 4, !tbaa !4
  %240 = load i32, ptr %6, align 4, !tbaa !4
  %241 = sub i32 %240, 1
  %242 = load i32, ptr %7, align 4, !tbaa !4
  %243 = mul i32 %241, %242
  %244 = add i32 %243, 1
  store i32 %244, ptr %15, align 4, !tbaa !4
  %245 = icmp ult i32 %239, %244
  br i1 %245, label %246, label %250

246:                                              ; preds = %238
  %247 = load ptr, ptr %10, align 8, !tbaa !8
  %248 = load i32, ptr %14, align 4, !tbaa !4
  %249 = load i32, ptr %15, align 4, !tbaa !4
  call void %247(i32 noundef %248, i32 noundef %249)
  br label %250

250:                                              ; preds = %246, %238
  br label %251

251:                                              ; preds = %250, %233, %228
  br label %252

252:                                              ; preds = %251, %227
  br label %253

253:                                              ; preds = %252, %211
  br label %254

254:                                              ; preds = %253, %189
  br label %255

255:                                              ; preds = %254, %172
  br label %256

256:                                              ; preds = %255, %171
  call void @llvm.lifetime.end.p0(i64 4, ptr %15) #11
  call void @llvm.lifetime.end.p0(i64 4, ptr %14) #11
  br label %257

257:                                              ; preds = %256
  %258 = load i32, ptr %13, align 4, !tbaa !4
  %259 = add i32 %258, 1
  store i32 %259, ptr %13, align 4, !tbaa !4
  br label %22, !llvm.loop !31

260:                                              ; preds = %26
  br label %261

261:                                              ; preds = %260
  %262 = load i32, ptr %11, align 4, !tbaa !4
  %263 = add i32 %262, 1
  store i32 %263, ptr %11, align 4, !tbaa !4
  br label %16, !llvm.loop !32

264:                                              ; preds = %20
  ret void
}