; Function Attrs: nounwind uwtable
define dso_local void @makeSquareGrid(i32 noundef %0, i32 noundef %1, i32 noundef %2, i32 noundef %3, ptr noundef readonly captures(none) %4) local_unnamed_addr #0 {
  %.not133 = icmp eq i32 %0, 0
  br i1 %.not133, label %._crit_edge129, label %.preheader.lr.ph

.preheader.lr.ph:                                 ; preds = %5
  %.not134 = icmp eq i32 %1, 0
  %.not = icmp eq i32 %3, 0
  %6 = shl i32 %1, 1
  %7 = udiv i32 %6, 6
  %8 = shl i32 %1, 2
  %9 = udiv i32 %8, 6
  %10 = shl i32 %0, 1
  %11 = udiv i32 %10, 6
  %12 = shl i32 %0, 2
  %13 = udiv i32 %12, 6
  %14 = add i32 %0, -1
  %15 = mul i32 %14, %1
  %16 = add i32 %15, 1
  %17 = mul i32 %1, %0
  br i1 %.not134, label %._crit_edge129, label %.preheader.us

.preheader.us:                                    ; preds = %.preheader.lr.ph, %._crit_edge.us
  %.0128.us = phi i32 [ %20, %._crit_edge.us ], [ 0, %.preheader.lr.ph ]
  %18 = mul i32 %.0128.us, %1
  %invariant.op.us = add i32 %18, 1
  %.not119.us = icmp ule i32 %.0128.us, %11
  %19 = icmp ugt i32 %.0128.us, %13
  %invariant.op126.us = add i32 %18, 2
  %20 = add nuw i32 %.0128.us, 1
  %21 = icmp ult i32 %20, %0
  %22 = mul i32 %20, %1
  %23 = add i32 %22, 1
  %24 = icmp eq i32 %.0128.us, 0
  %25 = icmp eq i32 %20, %0
  %invariant.op = or i1 %.not119.us, %19
  br label %26

26:                                               ; preds = %.preheader.us, %74
  %.0108125.us = phi i32 [ 0, %.preheader.us ], [ %27, %74 ]
  %.reass.us = add i32 %.0108125.us, %invariant.op.us
  %27 = add nuw i32 %.0108125.us, 1
  %28 = icmp ult i32 %27, %1
  br i1 %28, label %29, label %32

29:                                               ; preds = %26
  %30 = icmp ult i32 %.0108125.us, %7
  %or.cond.not136.not139 = or i1 %.not, %30
  %.not118.us = icmp uge i32 %.0108125.us, %9
  %or.cond130.not137 = or i1 %or.cond.not136.not139, %.not118.us
  %brmerge131.reass = or i1 %or.cond130.not137, %invariant.op
  br i1 %brmerge131.reass, label %31, label %32

31:                                               ; preds = %29
  %.reass127.us = add i32 %.0108125.us, %invariant.op126.us
  tail call void %4(i32 noundef %.reass.us, i32 noundef %.reass127.us) #15
  br label %32

32:                                               ; preds = %29, %31, %26
  br i1 %21, label %33, label %35

33:                                               ; preds = %32
  %34 = add i32 %23, %.0108125.us
  tail call void %4(i32 noundef %.reass.us, i32 noundef %34) #15
  br label %35

35:                                               ; preds = %33, %32
  switch i32 %2, label %74 [
    i32 1, label %55
    i32 2, label %36
  ]

36:                                               ; preds = %35
  %37 = or i32 %.0108125.us, %.0128.us
  %or.cond5.us = icmp eq i32 %37, 0
  br i1 %or.cond5.us, label %52, label %38

38:                                               ; preds = %36
  %39 = icmp eq i32 %.0108125.us, 0
  %or.cond7.us = and i1 %25, %39
  br i1 %or.cond7.us, label %49, label %40

40:                                               ; preds = %38
  %41 = icmp eq i32 %27, %1
  %or.cond123.us = and i1 %24, %41
  br i1 %or.cond123.us, label %46, label %42

42:                                               ; preds = %40
  %43 = icmp ult i32 %.reass.us, %16
  %44 = and i1 %41, %43
  %or.cond132 = and i1 %44, %25
  br i1 %or.cond132, label %45, label %74

45:                                               ; preds = %42
  tail call void %4(i32 noundef %.reass.us, i32 noundef %16) #15
  br label %74

46:                                               ; preds = %40
  %47 = icmp eq i32 %.reass.us, 0
  br i1 %47, label %48, label %74

48:                                               ; preds = %46
  tail call void %4(i32 noundef 0, i32 noundef 1) #15
  br label %74

49:                                               ; preds = %38
  %50 = icmp ult i32 %.reass.us, %17
  br i1 %50, label %51, label %74

51:                                               ; preds = %49
  tail call void %4(i32 noundef %.reass.us, i32 noundef %17) #15
  br label %74

52:                                               ; preds = %36
  %53 = icmp ult i32 %.reass.us, %1
  br i1 %53, label %54, label %74

54:                                               ; preds = %52
  tail call void %4(i32 noundef %.reass.us, i32 noundef %1) #15
  br label %74

55:                                               ; preds = %35
  %56 = or i32 %.0108125.us, %.0128.us
  %or.cond.us = icmp eq i32 %56, 0
  br i1 %or.cond.us, label %71, label %57

57:                                               ; preds = %55
  %58 = icmp eq i32 %.0108125.us, 0
  %or.cond3.us = and i1 %25, %58
  br i1 %or.cond3.us, label %68, label %59

59:                                               ; preds = %57
  %60 = icmp eq i32 %27, %1
  %or.cond120.us = and i1 %24, %60
  br i1 %or.cond120.us, label %65, label %61

61:                                               ; preds = %59
  %62 = icmp eq i32 %.reass.us, 0
  %63 = and i1 %60, %62
  %or.cond122.us = and i1 %25, %63
  br i1 %or.cond122.us, label %64, label %74

64:                                               ; preds = %61
  tail call void %4(i32 noundef 0, i32 noundef 1) #15
  br label %74

65:                                               ; preds = %59
  %66 = icmp ult i32 %.reass.us, %16
  br i1 %66, label %67, label %74

67:                                               ; preds = %65
  tail call void %4(i32 noundef %.reass.us, i32 noundef %16) #15
  br label %74

68:                                               ; preds = %57
  %69 = icmp ult i32 %.reass.us, %1
  br i1 %69, label %70, label %74

70:                                               ; preds = %68
  tail call void %4(i32 noundef %.reass.us, i32 noundef %1) #15
  br label %74

71:                                               ; preds = %55
  %72 = icmp ult i32 %.reass.us, %17
  br i1 %72, label %73, label %74

73:                                               ; preds = %71
  tail call void %4(i32 noundef %.reass.us, i32 noundef %17) #15
  br label %74

74:                                               ; preds = %73, %71, %70, %68, %67, %65, %64, %61, %54, %52, %51, %49, %48, %46, %45, %42, %35
  %exitcond.not = icmp eq i32 %27, %1
  br i1 %exitcond.not, label %._crit_edge.us, label %26, !llvm.loop !28

._crit_edge.us:                                   ; preds = %74
  %exitcond141.not = icmp eq i32 %20, %0
  br i1 %exitcond141.not, label %._crit_edge129, label %.preheader.us, !llvm.loop !29

._crit_edge129:                                   ; preds = %._crit_edge.us, %.preheader.lr.ph, %5
  ret void
}